target datalayout = "e-m:e-p270:32:32-p271:32:32-p272:64:64-i64:64-i128:128-f80:128-n8:16:32:64-S128"
target triple = "x86_64-pc-linux-gnu"

%"struct.vcpkg::StringView" = type { ptr, i64 }
%"class.std::__cxx11::basic_string" = type { %"struct.std::__cxx11::basic_string<char>::_Alloc_hider", i64, %union.anon.0 }
%"struct.std::__cxx11::basic_string<char>::_Alloc_hider" = type { ptr }
%union.anon.0 = type { i64, [8 x i8] }
%"struct.vcpkg::TextRowCol" = type { i32, i32 }
%"struct.vcpkg::LocalizedString" = type { %"class.std::__cxx11::basic_string" }
%"struct.vcpkg::Optional.10" = type { %"struct.vcpkg::details::OptionalStorage.11" }
%"struct.vcpkg::details::OptionalStorage.11" = type { %"struct.vcpkg::details::OptionalStorageDtor.12" }
%"struct.vcpkg::details::OptionalStorageDtor.12" = type { i8, %union.anon.13 }
%union.anon.13 = type { %"struct.vcpkg::LocalizedString" }
%"struct.vcpkg::ParserBase" = type { %"struct.vcpkg::Unicode::Utf8Decoder", %"struct.vcpkg::Unicode::Utf8Decoder", i32, i32, %"struct.vcpkg::StringView", %"struct.vcpkg::Optional.20", %"struct.vcpkg::ParseMessages" }
%"struct.vcpkg::Unicode::Utf8Decoder" = type { i32, ptr, ptr, ptr }
%"struct.vcpkg::Optional.20" = type { %"struct.vcpkg::details::OptionalStorage.21" }
%"struct.vcpkg::details::OptionalStorage.21" = type { %"struct.vcpkg::details::OptionalStorageDtor.22" }
%"struct.vcpkg::details::OptionalStorageDtor.22" = type { i8, %union.anon.23 }
%union.anon.23 = type { %"struct.vcpkg::StringView" }
%"struct.vcpkg::ParseMessages" = type { %"struct.vcpkg::Optional.10", %"class.std::vector.24" }
%"class.std::vector.24" = type { %"struct.std::_Vector_base.25" }
%"struct.std::_Vector_base.25" = type { %"struct.std::_Vector_base<vcpkg::ParseMessage, std::allocator<vcpkg::ParseMessage>>::_Vector_impl" }
%"struct.std::_Vector_base<vcpkg::ParseMessage, std::allocator<vcpkg::ParseMessage>>::_Vector_impl" = type { %"struct.std::_Vector_base<vcpkg::ParseMessage, std::allocator<vcpkg::ParseMessage>>::_Vector_impl_data" }
%"struct.std::_Vector_base<vcpkg::ParseMessage, std::allocator<vcpkg::ParseMessage>>::_Vector_impl_data" = type { ptr, ptr, ptr }
%"struct.vcpkg::ExpectedT.69" = type <{ %union.anon.70, i8, [7 x i8] }>
%union.anon.70 = type { %"struct.vcpkg::LocalizedString" }
%"struct.vcpkg::Paragraphs::PghParser" = type { %"struct.vcpkg::ParserBase" }

; Function Attrs: mustprogress nounwind uwtable
define linkonce_odr dso_local void @_ZN5vcpkg7details19OptionalStorageDtorINS_10StringViewELb1EEC2IJRKS2_EEENS0_9EngageTagEDpOT_(ptr noundef nonnull align 8 dereferenceable(24) %0, ptr noundef nonnull align 8 dereferenceable(16) %1) unnamed_addr #3 comdat align 2 {
  %3 = alloca ptr, align 8
  %4 = alloca ptr, align 8
  store ptr %0, ptr %3, align 8, !tbaa !511
  store ptr %1, ptr %4, align 8, !tbaa !55
  %5 = load ptr, ptr %3, align 8
  %6 = getelementptr inbounds nuw %"struct.vcpkg::details::OptionalStorageDtor.22", ptr %5, i32 0, i32 0
  store i8 1, ptr %6, align 8, !tbaa !509
  %7 = getelementptr inbounds nuw %"struct.vcpkg::details::OptionalStorageDtor.22", ptr %5, i32 0, i32 1
  %8 = load ptr, ptr %4, align 8, !tbaa !55
  call void @llvm.memcpy.p0.p0.i64(ptr align 8 %7, ptr align 8 %8, i64 16, i1 false), !tbaa.struct !63
  ret void
}

; Function Attrs: mustprogress nounwind uwtable
define linkonce_odr dso_local void @_ZN5vcpkg7details15OptionalStorageINS_10StringViewELb1EEC2ERKS2_(ptr noundef nonnull align 8 dereferenceable(24) %0, ptr noundef nonnull align 8 dereferenceable(16) %1) unnamed_addr #3 comdat align 2 {
  %3 = alloca ptr, align 8
  %4 = alloca ptr, align 8
  store ptr %0, ptr %3, align 8, !tbaa !507
  store ptr %1, ptr %4, align 8, !tbaa !55
  %5 = load ptr, ptr %3, align 8
  %6 = load ptr, ptr %4, align 8, !tbaa !55
  call void @_ZN5vcpkg7details19OptionalStorageDtorINS_10StringViewELb1EEC2IJRKS2_EEENS0_9EngageTagEDpOT_(ptr noundef nonnull align 8 dereferenceable(24) %5, ptr noundef nonnull align 8 dereferenceable(16) %6) #19
  ret void
}

; Function Attrs: mustprogress nounwind uwtable
define linkonce_odr dso_local void @_ZN5vcpkg8OptionalINS_10StringViewEEC2IRS1_TnNSt9enable_ifIXaantsr3stdE9is_same_vINSt5decayIT_E4typeES2_Esr3stdE18is_constructible_vINS_7details15OptionalStorageIS1_Lb1EEES7_EEiE4typeELi0EEEOS7_(ptr noundef nonnull align 8 dereferenceable(24) %0, ptr noundef nonnull align 8 dereferenceable(16) %1) unnamed_addr #3 comdat align 2 {
  %3 = alloca ptr, align 8
  %4 = alloca ptr, align 8
  store ptr %0, ptr %3, align 8, !tbaa !75
  store ptr %1, ptr %4, align 8, !tbaa !55
  %5 = load ptr, ptr %3, align 8
  %6 = load ptr, ptr %4, align 8, !tbaa !55
  call void @_ZN5vcpkg7details15OptionalStorageINS_10StringViewELb1EEC2ERKS2_(ptr noundef nonnull align 8 dereferenceable(24) %5, ptr noundef nonnull align 8 dereferenceable(16) %6) #19
  ret void
}

; Function Attrs: mustprogress uwtable
define linkonce_odr dso_local void @_ZN5vcpkg10Paragraphs9PghParserC2ENS_10StringViewES2_(ptr noundef nonnull align 8 dereferenceable(176) %0, ptr %1, i64 %2, ptr %3, i64 %4) unnamed_addr #0 comdat align 2 {
  %6 = alloca %"struct.vcpkg::StringView", align 8
  %7 = alloca %"struct.vcpkg::StringView", align 8
  %8 = alloca ptr, align 8
  %9 = alloca %"struct.vcpkg::StringView", align 8
  %10 = alloca %"struct.vcpkg::Optional.20", align 8
  %11 = alloca %"struct.vcpkg::TextRowCol", align 4
  %12 = getelementptr inbounds nuw { ptr, i64 }, ptr %6, i32 0, i32 0
  store ptr %1, ptr %12, align 8
  %13 = getelementptr inbounds nuw { ptr, i64 }, ptr %6, i32 0, i32 1
  store i64 %2, ptr %13, align 8
  %14 = getelementptr inbounds nuw { ptr, i64 }, ptr %7, i32 0, i32 0
  store ptr %3, ptr %14, align 8
  %15 = getelementptr inbounds nuw { ptr, i64 }, ptr %7, i32 0, i32 1
  store i64 %4, ptr %15, align 8
  store ptr %0, ptr %8, align 8, !tbaa !124
  %16 = load ptr, ptr %8, align 8
  call void @llvm.memcpy.p0.p0.i64(ptr align 8 %9, ptr align 8 %6, i64 16, i1 false), !tbaa.struct !63
  call void @_ZN5vcpkg8OptionalINS_10StringViewEEC2IRS1_TnNSt9enable_ifIXaantsr3stdE9is_same_vINSt5decayIT_E4typeES2_Esr3stdE18is_constructible_vINS_7details15OptionalStorageIS1_Lb1EEES7_EEiE4typeELi0EEEOS7_(ptr noundef nonnull align 8 dereferenceable(24) %10, ptr noundef nonnull align 8 dereferenceable(16) %7) #19
  %17 = getelementptr inbounds nuw %"struct.vcpkg::TextRowCol", ptr %11, i32 0, i32 0
  store i32 1, ptr %17, align 4, !tbaa !126
  %18 = getelementptr inbounds nuw %"struct.vcpkg::TextRowCol", ptr %11, i32 0, i32 1
  store i32 1, ptr %18, align 4, !tbaa !128
  %19 = getelementptr inbounds nuw { ptr, i64 }, ptr %9, i32 0, i32 0
  %20 = load ptr, ptr %19, align 8
  %21 = getelementptr inbounds nuw { ptr, i64 }, ptr %9, i32 0, i32 1
  %22 = load i64, ptr %21, align 8
  %23 = load i64, ptr %11, align 4
  call void @_ZN5vcpkg10ParserBaseC2ENS_10StringViewENS_8OptionalIS1_EENS_10TextRowColE(ptr noundef nonnull align 8 dereferenceable(176) %16, ptr %20, i64 %22, ptr noundef %10, i64 %23)
  ret void
}

; Function Attrs: mustprogress uwtable
define dso_local void @_ZN5vcpkg10Paragraphs16parse_paragraphsB5cxx11ENS_10StringViewES1_(ptr dead_on_unwind noalias writable sret(%"struct.vcpkg::ExpectedT.69") align 8 %0, ptr %1, i64 %2, ptr %3, i64 %4) #0 personality ptr @__gxx_personality_v0 {
  %6 = alloca ptr, align 8
  %7 = alloca %"struct.vcpkg::StringView", align 8
  %8 = alloca %"struct.vcpkg::StringView", align 8
  %9 = alloca %"struct.vcpkg::Paragraphs::PghParser", align 8
  %10 = alloca %"struct.vcpkg::StringView", align 8
  %11 = alloca %"struct.vcpkg::StringView", align 8
  %12 = alloca ptr, align 8
  %13 = alloca i32, align 4
  store ptr %0, ptr %6, align 8
  %14 = getelementptr inbounds nuw { ptr, i64 }, ptr %7, i32 0, i32 0
  store ptr %1, ptr %14, align 8
  %15 = getelementptr inbounds nuw { ptr, i64 }, ptr %7, i32 0, i32 1
  store i64 %2, ptr %15, align 8
  %16 = getelementptr inbounds nuw { ptr, i64 }, ptr %8, i32 0, i32 0
  store ptr %3, ptr %16, align 8
  %17 = getelementptr inbounds nuw { ptr, i64 }, ptr %8, i32 0, i32 1
  store i64 %4, ptr %17, align 8
  call void @llvm.lifetime.start.p0(i64 176, ptr %9) #19
  call void @llvm.memcpy.p0.p0.i64(ptr align 8 %10, ptr align 8 %7, i64 16, i1 false), !tbaa.struct !63
  call void @llvm.memcpy.p0.p0.i64(ptr align 8 %11, ptr align 8 %8, i64 16, i1 false), !tbaa.struct !63
  %18 = getelementptr inbounds nuw { ptr, i64 }, ptr %10, i32 0, i32 0
  %19 = load ptr, ptr %18, align 8
  %20 = getelementptr inbounds nuw { ptr, i64 }, ptr %10, i32 0, i32 1
  %21 = load i64, ptr %20, align 8
  %22 = getelementptr inbounds nuw { ptr, i64 }, ptr %11, i32 0, i32 0
  %23 = load ptr, ptr %22, align 8
  %24 = getelementptr inbounds nuw { ptr, i64 }, ptr %11, i32 0, i32 1
  %25 = load i64, ptr %24, align 8
  call void @_ZN5vcpkg10Paragraphs9PghParserC2ENS_10StringViewES2_(ptr noundef nonnull align 8 dereferenceable(176) %9, ptr %19, i64 %21, ptr %23, i64 %25)
  invoke void @_ZN5vcpkg10Paragraphs9PghParser14get_paragraphsB5cxx11Ev(ptr dead_on_unwind writable sret(%"struct.vcpkg::ExpectedT.69") align 8 %0, ptr noundef nonnull align 8 dereferenceable(176) %9)
          to label %26 unwind label %27

26:                                               ; preds = %5
  call void @_ZN5vcpkg10ParserBaseD2Ev(ptr noundef nonnull align 8 dereferenceable(176) %9) #19
  call void @llvm.lifetime.end.p0(i64 176, ptr %9) #19
  ret void

27:                                               ; preds = %5
  %28 = landingpad { ptr, i32 }
          cleanup
  %29 = extractvalue { ptr, i32 } %28, 0
  store ptr %29, ptr %12, align 8
  %30 = extractvalue { ptr, i32 } %28, 1
  store i32 %30, ptr %13, align 4
  call void @_ZN5vcpkg10ParserBaseD2Ev(ptr noundef nonnull align 8 dereferenceable(176) %9) #19
  call void @llvm.lifetime.end.p0(i64 176, ptr %9) #19
  br label %31

31:                                               ; preds = %27
  %32 = load ptr, ptr %12, align 8
  %33 = load i32, ptr %13, align 4
  %34 = insertvalue { ptr, i32 } poison, ptr %32, 0
  %35 = insertvalue { ptr, i32 } %34, i32 %33, 1
  resume { ptr, i32 } %35
}