; Function Attrs: mustprogress uwtable
define dso_local void @_ZN5vcpkg10Paragraphs16parse_paragraphsB5cxx11ENS_10StringViewES1_(ptr dead_on_unwind noalias writable sret(%"struct.vcpkg::ExpectedT.69") align 8 %0, ptr %1, i64 %2, ptr %3, i64 %4) local_unnamed_addr #0 personality ptr @__gxx_personality_v0 {
  %6 = alloca %"struct.vcpkg::Optional.20", align 8
  %7 = alloca %"struct.vcpkg::Paragraphs::PghParser", align 8
  call void @llvm.lifetime.start.p0(i64 176, ptr nonnull %7) #23
  call void @llvm.lifetime.start.p0(i64 24, ptr nonnull %6)
  store i8 1, ptr %6, align 8, !tbaa !74
  %8 = getelementptr inbounds nuw i8, ptr %6, i64 8
  store ptr %3, ptr %8, align 8, !tbaa !47
  %.sroa.2.0..sroa_idx.i = getelementptr inbounds nuw i8, ptr %6, i64 16
  store i64 %4, ptr %.sroa.2.0..sroa_idx.i, align 8, !tbaa !37
  call void @_ZN5vcpkg10ParserBaseC2ENS_10StringViewENS_8OptionalIS1_EENS_10TextRowColE(ptr noundef nonnull align 8 dereferenceable(176) %7, ptr %1, i64 %2, ptr noundef nonnull %6, i64 4294967297)
  call void @llvm.lifetime.end.p0(i64 24, ptr nonnull %6)
  invoke void @_ZN5vcpkg10Paragraphs9PghParser14get_paragraphsB5cxx11Ev(ptr dead_on_unwind writable sret(%"struct.vcpkg::ExpectedT.69") align 8 %0, ptr noundef nonnull align 8 dereferenceable(176) %7)
          to label %9 unwind label %44

9:                                                ; preds = %5
  %10 = getelementptr inbounds nuw i8, ptr %7, i64 112
  %11 = getelementptr inbounds nuw i8, ptr %7, i64 152
  %12 = load ptr, ptr %11, align 8, !tbaa !99
  %13 = getelementptr inbounds nuw i8, ptr %7, i64 160
  %14 = load ptr, ptr %13, align 8, !tbaa !102
  %.not4.i.i.i.i.i.i = icmp eq ptr %12, %14
  br i1 %.not4.i.i.i.i.i.i, label %_ZSt8_DestroyIPN5vcpkg12ParseMessageES1_EvT_S3_RSaIT0_E.exit.i.i.i, label %.lr.ph.i.i.i.i.i.i

.lr.ph.i.i.i.i.i.i:                               ; preds = %9, %_ZSt8_DestroyIN5vcpkg12ParseMessageEEvPT_.exit.i.i.i.i.i.i
  %.05.i.i.i.i.i.i = phi ptr [ %24, %_ZSt8_DestroyIN5vcpkg12ParseMessageEEvPT_.exit.i.i.i.i.i.i ], [ %12, %9 ]
  %15 = getelementptr inbounds nuw i8, ptr %.05.i.i.i.i.i.i, i64 72
  %16 = load ptr, ptr %15, align 8, !tbaa !24
  %17 = getelementptr inbounds nuw i8, ptr %.05.i.i.i.i.i.i, i64 88
  %18 = icmp eq ptr %16, %17
  br i1 %18, label %_ZNKSt7__cxx1112basic_stringIcSt11char_traitsIcESaIcEE11_M_is_localEv.exit.thread.i.i.i.i.i.i.i.i.i.i.i, label %_ZNKSt7__cxx1112basic_stringIcSt11char_traitsIcESaIcEE11_M_is_localEv.exit.i.i.i.i.i.i.i.i.i.i.i

_ZNKSt7__cxx1112basic_stringIcSt11char_traitsIcESaIcEE11_M_is_localEv.exit.thread.i.i.i.i.i.i.i.i.i.i.i: ; preds = %.lr.ph.i.i.i.i.i.i
  %19 = getelementptr inbounds nuw i8, ptr %.05.i.i.i.i.i.i, i64 80
  %20 = load i64, ptr %19, align 8, !tbaa !25
  %21 = icmp ult i64 %20, 16
  call void @llvm.assume(i1 %21)
  br label %_ZSt8_DestroyIN5vcpkg12ParseMessageEEvPT_.exit.i.i.i.i.i.i

_ZNKSt7__cxx1112basic_stringIcSt11char_traitsIcESaIcEE11_M_is_localEv.exit.i.i.i.i.i.i.i.i.i.i.i: ; preds = %.lr.ph.i.i.i.i.i.i
  %22 = load i64, ptr %17, align 8, !tbaa !29
  %23 = add i64 %22, 1
  call void @_ZdlPvm(ptr noundef %16, i64 noundef %23) #24
  br label %_ZSt8_DestroyIN5vcpkg12ParseMessageEEvPT_.exit.i.i.i.i.i.i

_ZSt8_DestroyIN5vcpkg12ParseMessageEEvPT_.exit.i.i.i.i.i.i: ; preds = %_ZNKSt7__cxx1112basic_stringIcSt11char_traitsIcESaIcEE11_M_is_localEv.exit.i.i.i.i.i.i.i.i.i.i.i, %_ZNKSt7__cxx1112basic_stringIcSt11char_traitsIcESaIcEE11_M_is_localEv.exit.thread.i.i.i.i.i.i.i.i.i.i.i
  %24 = getelementptr inbounds nuw i8, ptr %.05.i.i.i.i.i.i, i64 104
  %.not.i.i.i.i.i.i = icmp eq ptr %24, %14
  br i1 %.not.i.i.i.i.i.i, label %_ZSt8_DestroyIPN5vcpkg12ParseMessageES1_EvT_S3_RSaIT0_E.exitthread-pre-split.i.i.i, label %.lr.ph.i.i.i.i.i.i, !llvm.loop !103

_ZSt8_DestroyIPN5vcpkg12ParseMessageES1_EvT_S3_RSaIT0_E.exitthread-pre-split.i.i.i: ; preds = %_ZSt8_DestroyIN5vcpkg12ParseMessageEEvPT_.exit.i.i.i.i.i.i
  %.pr.i.i.i = load ptr, ptr %11, align 8, !tbaa !99
  br label %_ZSt8_DestroyIPN5vcpkg12ParseMessageES1_EvT_S3_RSaIT0_E.exit.i.i.i

_ZSt8_DestroyIPN5vcpkg12ParseMessageES1_EvT_S3_RSaIT0_E.exit.i.i.i: ; preds = %_ZSt8_DestroyIPN5vcpkg12ParseMessageES1_EvT_S3_RSaIT0_E.exitthread-pre-split.i.i.i, %9
  %25 = phi ptr [ %.pr.i.i.i, %_ZSt8_DestroyIPN5vcpkg12ParseMessageES1_EvT_S3_RSaIT0_E.exitthread-pre-split.i.i.i ], [ %12, %9 ]
  %.not.i.i.i.i.i = icmp eq ptr %25, null
  br i1 %.not.i.i.i.i.i, label %_ZNSt6vectorIN5vcpkg12ParseMessageESaIS1_EED2Ev.exit.i.i, label %26

26:                                               ; preds = %_ZSt8_DestroyIPN5vcpkg12ParseMessageES1_EvT_S3_RSaIT0_E.exit.i.i.i
  %27 = getelementptr inbounds nuw i8, ptr %7, i64 168
  %28 = load ptr, ptr %27, align 8, !tbaa !104
  %29 = ptrtoint ptr %28 to i64
  %30 = ptrtoint ptr %25 to i64
  %31 = sub i64 %29, %30
  call void @_ZdlPvm(ptr noundef nonnull %25, i64 noundef %31) #24
  br label %_ZNSt6vectorIN5vcpkg12ParseMessageESaIS1_EED2Ev.exit.i.i

_ZNSt6vectorIN5vcpkg12ParseMessageESaIS1_EED2Ev.exit.i.i: ; preds = %26, %_ZSt8_DestroyIPN5vcpkg12ParseMessageES1_EvT_S3_RSaIT0_E.exit.i.i.i
  %32 = load i8, ptr %10, align 8, !tbaa !59, !range !35, !noundef !36
  %33 = trunc nuw i8 %32 to i1
  br i1 %33, label %34, label %_ZN5vcpkg10ParserBaseD2Ev.exit

34:                                               ; preds = %_ZNSt6vectorIN5vcpkg12ParseMessageESaIS1_EED2Ev.exit.i.i
  %35 = getelementptr inbounds nuw i8, ptr %7, i64 120
  %36 = load ptr, ptr %35, align 8, !tbaa !24
  %37 = getelementptr inbounds nuw i8, ptr %7, i64 136
  %38 = icmp eq ptr %36, %37
  br i1 %38, label %_ZNKSt7__cxx1112basic_stringIcSt11char_traitsIcESaIcEE11_M_is_localEv.exit.thread.i.i.i.i.i.i, label %_ZNKSt7__cxx1112basic_stringIcSt11char_traitsIcESaIcEE11_M_is_localEv.exit.i.i.i.i.i.i

_ZNKSt7__cxx1112basic_stringIcSt11char_traitsIcESaIcEE11_M_is_localEv.exit.thread.i.i.i.i.i.i: ; preds = %34
  %39 = getelementptr inbounds nuw i8, ptr %7, i64 128
  %40 = load i64, ptr %39, align 8, !tbaa !25
  %41 = icmp ult i64 %40, 16
  call void @llvm.assume(i1 %41)
  br label %_ZN5vcpkg10ParserBaseD2Ev.exit

_ZNKSt7__cxx1112basic_stringIcSt11char_traitsIcESaIcEE11_M_is_localEv.exit.i.i.i.i.i.i: ; preds = %34
  %42 = load i64, ptr %37, align 8, !tbaa !29
  %43 = add i64 %42, 1
  call void @_ZdlPvm(ptr noundef %36, i64 noundef %43) #24
  br label %_ZN5vcpkg10ParserBaseD2Ev.exit

_ZN5vcpkg10ParserBaseD2Ev.exit:                   ; preds = %_ZNSt6vectorIN5vcpkg12ParseMessageESaIS1_EED2Ev.exit.i.i, %_ZNKSt7__cxx1112basic_stringIcSt11char_traitsIcESaIcEE11_M_is_localEv.exit.thread.i.i.i.i.i.i, %_ZNKSt7__cxx1112basic_stringIcSt11char_traitsIcESaIcEE11_M_is_localEv.exit.i.i.i.i.i.i
  call void @llvm.lifetime.end.p0(i64 176, ptr nonnull %7) #23
  ret void

44:                                               ; preds = %5
  %45 = landingpad { ptr, i32 }
          cleanup
  call void @_ZN5vcpkg10ParserBaseD2Ev(ptr noundef nonnull align 8 dereferenceable(176) %7) #23
  call void @llvm.lifetime.end.p0(i64 176, ptr nonnull %7) #23
  resume { ptr, i32 } %45
}